; ModuleID = 'source-C-CXX/52/1696.c'
source_filename = "source-C-CXX/52/1696.c"
target datalayout = "e-m:e-p270:32:32-p271:32:32-p272:64:64-i64:64-f80:128-n8:16:32:64-S128"
target triple = "x86_64-pc-linux-gnu"

@.str = private unnamed_addr constant [3 x i8] c"%d\00", align 1
@.str.1 = private unnamed_addr constant [4 x i8] c"%d,\00", align 1

; Function Attrs: nofree nounwind sspstrong uwtable
define dso_local i32 @main() local_unnamed_addr #0 {
  %1 = alloca i32, align 4
  %2 = alloca [300 x i32], align 16
  %3 = alloca [300 x i32], align 16
  %4 = bitcast i32* %1 to i8*
  call void @llvm.lifetime.start.p0i8(i64 4, i8* nonnull %4) #3
  %5 = call i32 (i8*, ...) @__isoc99_scanf(i8* getelementptr inbounds ([3 x i8], [3 x i8]* @.str, i64 0, i64 0), i32* nonnull %1)
  %6 = bitcast [300 x i32]* %2 to i8*
  call void @llvm.lifetime.start.p0i8(i64 1200, i8* nonnull %6) #3
  %7 = bitcast [300 x i32]* %3 to i8*
  call void @llvm.lifetime.start.p0i8(i64 1200, i8* nonnull %7) #3
  %8 = load i32, i32* %1, align 4, !tbaa !5
  %9 = icmp sgt i32 %8, 0
  br i1 %9, label %19, label %10

10:                                               ; preds = %0
  %11 = add i32 %8, -1
  br label %60

12:                                               ; preds = %19
  %13 = add i32 %24, -1
  %14 = icmp sgt i32 %24, 1
  br i1 %14, label %15, label %60

15:                                               ; preds = %12
  %16 = zext i32 %24 to i64
  %17 = zext i32 %13 to i64
  %18 = zext i32 %24 to i64
  br label %27

19:                                               ; preds = %0, %19
  %20 = phi i64 [ %23, %19 ], [ 0, %0 ]
  %21 = getelementptr inbounds [300 x i32], [300 x i32]* %2, i64 0, i64 %20
  %22 = call i32 (i8*, ...) @__isoc99_scanf(i8* getelementptr inbounds ([3 x i8], [3 x i8]* @.str, i64 0, i64 0), i32* nonnull %21)
  %23 = add nuw nsw i64 %20, 1
  %24 = load i32, i32* %1, align 4, !tbaa !5
  %25 = sext i32 %24 to i64
  %26 = icmp slt i64 %23, %25
  br i1 %26, label %19, label %12, !llvm.loop !9

27:                                               ; preds = %15, %55
  %28 = phi i64 [ 0, %15 ], [ %56, %55 ]
  %29 = phi i64 [ 1, %15 ], [ %58, %55 ]
  %30 = phi i32 [ 0, %15 ], [ %57, %55 ]
  %31 = getelementptr inbounds [300 x i32], [300 x i32]* %2, i64 0, i64 %28
  %32 = load i32, i32* %31, align 4, !tbaa !5
  %33 = icmp eq i32 %32, 0
  br i1 %33, label %34, label %36

34:                                               ; preds = %27
  %35 = add nuw nsw i64 %28, 1
  br label %55

36:                                               ; preds = %27
  %37 = sext i32 %30 to i64
  %38 = getelementptr inbounds [300 x i32], [300 x i32]* %3, i64 0, i64 %37
  %39 = trunc i64 %28 to i32
  store i32 %39, i32* %38, align 4, !tbaa !5
  %40 = add nsw i32 %30, 1
  %41 = add nuw nsw i64 %28, 1
  %42 = icmp slt i64 %41, %16
  br i1 %42, label %43, label %55

43:                                               ; preds = %36, %53
  %44 = phi i32 [ %54, %53 ], [ %32, %36 ]
  %45 = phi i64 [ %51, %53 ], [ %29, %36 ]
  %46 = getelementptr inbounds [300 x i32], [300 x i32]* %2, i64 0, i64 %45
  %47 = load i32, i32* %46, align 4, !tbaa !5
  %48 = icmp eq i32 %44, %47
  br i1 %48, label %49, label %50

49:                                               ; preds = %43
  store i32 0, i32* %46, align 4, !tbaa !5
  br label %50

50:                                               ; preds = %43, %49
  %51 = add nuw nsw i64 %45, 1
  %52 = icmp eq i64 %51, %18
  br i1 %52, label %55, label %53, !llvm.loop !11

53:                                               ; preds = %50
  %54 = load i32, i32* %31, align 4, !tbaa !5
  br label %43

55:                                               ; preds = %50, %34, %36
  %56 = phi i64 [ %35, %34 ], [ %41, %36 ], [ %41, %50 ]
  %57 = phi i32 [ %30, %34 ], [ %40, %36 ], [ %40, %50 ]
  %58 = add nuw nsw i64 %29, 1
  %59 = icmp eq i64 %56, %17
  br i1 %59, label %60, label %27, !llvm.loop !12

60:                                               ; preds = %55, %10, %12
  %61 = phi i32 [ %13, %12 ], [ %11, %10 ], [ %13, %55 ]
  %62 = phi i32 [ 0, %12 ], [ 0, %10 ], [ %57, %55 ]
  %63 = sext i32 %61 to i64
  %64 = getelementptr inbounds [300 x i32], [300 x i32]* %2, i64 0, i64 %63
  %65 = load i32, i32* %64, align 4, !tbaa !5
  %66 = icmp eq i32 %65, 0
  br i1 %66, label %71, label %67

67:                                               ; preds = %60
  %68 = sext i32 %62 to i64
  %69 = getelementptr inbounds [300 x i32], [300 x i32]* %3, i64 0, i64 %68
  store i32 %61, i32* %69, align 4, !tbaa !5
  %70 = add nsw i32 %62, 1
  br label %71

71:                                               ; preds = %67, %60
  %72 = phi i32 [ %70, %67 ], [ %62, %60 ]
  %73 = add i32 %72, -1
  %74 = icmp sgt i32 %72, 1
  br i1 %74, label %75, label %87

75:                                               ; preds = %71
  %76 = zext i32 %73 to i64
  br label %77

77:                                               ; preds = %75, %77
  %78 = phi i64 [ 0, %75 ], [ %85, %77 ]
  %79 = getelementptr inbounds [300 x i32], [300 x i32]* %3, i64 0, i64 %78
  %80 = load i32, i32* %79, align 4, !tbaa !5
  %81 = sext i32 %80 to i64
  %82 = getelementptr inbounds [300 x i32], [300 x i32]* %2, i64 0, i64 %81
  %83 = load i32, i32* %82, align 4, !tbaa !5
  %84 = call i32 (i8*, ...) @printf(i8* nonnull dereferenceable(1) getelementptr inbounds ([4 x i8], [4 x i8]* @.str.1, i64 0, i64 0), i32 %83)
  %85 = add nuw nsw i64 %78, 1
  %86 = icmp eq i64 %85, %76
  br i1 %86, label %87, label %77, !llvm.loop !13

87:                                               ; preds = %77, %71
  %88 = sext i32 %73 to i64
  %89 = getelementptr inbounds [300 x i32], [300 x i32]* %3, i64 0, i64 %88
  %90 = load i32, i32* %89, align 4, !tbaa !5
  %91 = sext i32 %90 to i64
  %92 = getelementptr inbounds [300 x i32], [300 x i32]* %2, i64 0, i64 %91
  %93 = load i32, i32* %92, align 4, !tbaa !5
  %94 = call i32 (i8*, ...) @printf(i8* nonnull dereferenceable(1) getelementptr inbounds ([3 x i8], [3 x i8]* @.str, i64 0, i64 0), i32 %93)
  call void @llvm.lifetime.end.p0i8(i64 1200, i8* nonnull %7) #3
  call void @llvm.lifetime.end.p0i8(i64 1200, i8* nonnull %6) #3
  call void @llvm.lifetime.end.p0i8(i64 4, i8* nonnull %4) #3
  ret i32 0
}

; Function Attrs: argmemonly mustprogress nofree nosync nounwind willreturn
declare void @llvm.lifetime.start.p0i8(i64 immarg, i8* nocapture) #1

; Function Attrs: nofree nounwind
declare noundef i32 @__isoc99_scanf(i8* nocapture noundef readonly, ...) local_unnamed_addr #2

; Function Attrs: nofree nounwind
declare noundef i32 @printf(i8* nocapture noundef readonly, ...) local_unnamed_addr #2

; Function Attrs: argmemonly mustprogress nofree nosync nounwind willreturn
declare void @llvm.lifetime.end.p0i8(i64 immarg, i8* nocapture) #1


!llvm.module.flags = !{!0, !1, !2, !3}
!llvm.ident = !{!4}

!0 = !{i32 1, !"wchar_size", i32 4}
!1 = !{i32 7, !"PIC Level", i32 2}
!2 = !{i32 7, !"PIE Level", i32 2}
!3 = !{i32 7, !"uwtable", i32 1}
!4 = !{!"clang version 13.0.0"}
!5 = !{!6, !6, i64 0}
!6 = !{!"int", !7, i64 0}
!7 = !{!"omnipotent char", !8, i64 0}
!8 = !{!"Simple C/C++ TBAA"}
!9 = distinct !{!9, !10}
!10 = !{!"llvm.loop.mustprogress"}
!11 = distinct !{!11, !10}
!12 = distinct !{!12, !10}
!13 = distinct !{!13, !10}
